; Function Attrs: mustprogress nofree nosync nounwind willreturn memory(read, argmem: none, inaccessiblemem: none) uwtable
define dso_local range(i32 0, 2) i32 @in_async() local_unnamed_addr #13 {
  %.b = load i1, ptr @main_thread_set, align 4
  br i1 %.b, label %1, label %6

1:                                                ; preds = %0
  %2 = load i64, ptr @main_thread, align 8, !tbaa !82
  %3 = tail call i64 @pthread_self() #23
  %4 = icmp ne i64 %2, %3
  %5 = zext i1 %4 to i32
  br label %6

6:                                                ; preds = %0, %1
  %.0 = phi i32 [ %5, %1 ], [ 0, %0 ]
  ret i32 %.0
}